target datalayout = "e-m:e-p270:32:32-p271:32:32-p272:64:64-i64:64-i128:128-f80:128-n8:16:32:64-S128"
target triple = "x86_64-pc-linux-gnu"

%struct.tcache_slow_s = type { %struct.anon, %struct.cache_bin_array_descriptor_s, ptr, i32, [39 x i8], [39 x i8], [39 x i8], ptr, ptr }
%struct.anon = type { ptr, ptr }
%struct.cache_bin_array_descriptor_s = type { %struct.anon.0, ptr }
%struct.anon.0 = type { ptr, ptr }
%struct.tcache_s = type { ptr, [76 x %struct.cache_bin_s] }
%struct.cache_bin_s = type { ptr, %struct.cache_bin_stats_s, i16, i16, i16 }
%struct.cache_bin_stats_s = type { i64 }
%struct.tsd_s = type { i8, i8, i64, i64, i64, i64, i64, i64, i64, i64, i64, i64, i64, i64, ptr, i64, i64, i64, ptr, ptr, %struct.ticker_geom_s, i8, %struct.tsd_binshards_s, %struct.tsd_link_t, i8, %struct.peak_s, %struct.activity_callback_thunk_s, %struct.tcache_slow_s, %struct.rtree_ctx_s, %struct.atomic_u8_t, i64, i64, i64, i64, %struct.tcache_s, %struct.witness_tsd_s }
%struct.ticker_geom_s = type { i32, i32 }
%struct.tsd_binshards_s = type { [39 x i8] }
%struct.tsd_link_t = type { ptr, ptr }
%struct.peak_s = type { i64, i64 }
%struct.activity_callback_thunk_s = type { ptr, ptr }
%struct.rtree_ctx_s = type { [16 x %struct.rtree_ctx_cache_elm_s], [8 x %struct.rtree_ctx_cache_elm_s] }
%struct.rtree_ctx_cache_elm_s = type { i64, ptr }
%struct.atomic_u8_t = type { i8 }
%struct.witness_tsd_s = type { %struct.witness_list_t, i8 }
%struct.witness_list_t = type { ptr }

@je_nhbins = hidden global i32 0, align 4

; Function Attrs: alwaysinline nounwind uwtable
define internal ptr @tsd_tcachep_get_unsafe(ptr noundef %0) #1 {
  %2 = alloca ptr, align 8
  store ptr %0, ptr %2, align 8, !tbaa !14
  %3 = load ptr, ptr %2, align 8, !tbaa !14
  %4 = getelementptr inbounds nuw %struct.tsd_s, ptr %3, i32 0, i32 34
  ret ptr %4
}

; Function Attrs: alwaysinline nounwind uwtable
define internal zeroext i8 @tsd_state_get(ptr noundef %0) #1 {
  %2 = alloca ptr, align 8
  store ptr %0, ptr %2, align 8, !tbaa !14
  %3 = load ptr, ptr %2, align 8, !tbaa !14
  %4 = getelementptr inbounds nuw %struct.tsd_s, ptr %3, i32 0, i32 29
  %5 = load i8, ptr %4, align 8, !tbaa !39
  ret i8 %5
}

; Function Attrs: nounwind uwtable
define internal void @tcache_flush_cache(ptr noundef %0, ptr noundef %1) #0 {
  %3 = alloca ptr, align 8
  %4 = alloca ptr, align 8
  %5 = alloca ptr, align 8
  %6 = alloca i32, align 4
  %7 = alloca ptr, align 8
  store ptr %0, ptr %3, align 8, !tbaa !14
  store ptr %1, ptr %4, align 8, !tbaa !18
  call void @llvm.lifetime.start.p0(i64 8, ptr %5) #12
  %8 = load ptr, ptr %4, align 8, !tbaa !18
  %9 = getelementptr inbounds nuw %struct.tcache_s, ptr %8, i32 0, i32 0
  %10 = load ptr, ptr %9, align 8, !tbaa !43
  store ptr %10, ptr %5, align 8, !tbaa !20
  br label %11

11:                                               ; preds = %2
  br label %12

12:                                               ; preds = %11
  br label %13

13:                                               ; preds = %12
  call void @llvm.lifetime.start.p0(i64 4, ptr %6) #12
  store i32 0, ptr %6, align 4, !tbaa !30
  br label %14

14:                                               ; preds = %42, %13
  %15 = load i32, ptr %6, align 4, !tbaa !30
  %16 = load i32, ptr @je_nhbins, align 4, !tbaa !30
  %17 = icmp ult i32 %15, %16
  br i1 %17, label %19, label %18

18:                                               ; preds = %14
  call void @llvm.lifetime.end.p0(i64 4, ptr %6) #12
  br label %45

19:                                               ; preds = %14
  call void @llvm.lifetime.start.p0(i64 8, ptr %7) #12
  %20 = load ptr, ptr %4, align 8, !tbaa !18
  %21 = getelementptr inbounds nuw %struct.tcache_s, ptr %20, i32 0, i32 1
  %22 = load i32, ptr %6, align 4, !tbaa !30
  %23 = zext i32 %22 to i64
  %24 = getelementptr inbounds nuw [76 x %struct.cache_bin_s], ptr %21, i64 0, i64 %23
  store ptr %24, ptr %7, align 8, !tbaa !32
  %25 = load i32, ptr %6, align 4, !tbaa !30
  %26 = zext i32 %25 to i64
  %27 = icmp ult i64 %26, 39
  br i1 %27, label %28, label %33

28:                                               ; preds = %19
  %29 = load ptr, ptr %3, align 8, !tbaa !14
  %30 = load ptr, ptr %4, align 8, !tbaa !18
  %31 = load ptr, ptr %7, align 8, !tbaa !32
  %32 = load i32, ptr %6, align 4, !tbaa !30
  call void @je_tcache_bin_flush_small(ptr noundef %29, ptr noundef %30, ptr noundef %31, i32 noundef %32, i32 noundef 0)
  br label %38

33:                                               ; preds = %19
  %34 = load ptr, ptr %3, align 8, !tbaa !14
  %35 = load ptr, ptr %4, align 8, !tbaa !18
  %36 = load ptr, ptr %7, align 8, !tbaa !32
  %37 = load i32, ptr %6, align 4, !tbaa !30
  call void @je_tcache_bin_flush_large(ptr noundef %34, ptr noundef %35, ptr noundef %36, i32 noundef %37, i32 noundef 0)
  br label %38

38:                                               ; preds = %33, %28
  br label %39

39:                                               ; preds = %38
  br label %40

40:                                               ; preds = %39
  br label %41

41:                                               ; preds = %40
  call void @llvm.lifetime.end.p0(i64 8, ptr %7) #12
  br label %42

42:                                               ; preds = %41
  %43 = load i32, ptr %6, align 4, !tbaa !30
  %44 = add i32 %43, 1
  store i32 %44, ptr %6, align 4, !tbaa !30
  br label %14, !llvm.loop !133

45:                                               ; preds = %18
  call void @llvm.lifetime.end.p0(i64 8, ptr %5) #12
  ret void
}

; Function Attrs: alwaysinline nounwind uwtable
define internal ptr @tsd_tcachep_get(ptr noundef %0) #1 {
  %2 = alloca ptr, align 8
  %3 = alloca i8, align 1
  store ptr %0, ptr %2, align 8, !tbaa !14
  call void @llvm.lifetime.start.p0(i64 1, ptr %3) #12
  %4 = load ptr, ptr %2, align 8, !tbaa !14
  %5 = call zeroext i8 @tsd_state_get(ptr noundef %4)
  store i8 %5, ptr %3, align 1, !tbaa !39
  br label %6

6:                                                ; preds = %1
  br label %7

7:                                                ; preds = %6
  br label %8

8:                                                ; preds = %7
  %9 = load ptr, ptr %2, align 8, !tbaa !14
  %10 = call ptr @tsd_tcachep_get_unsafe(ptr noundef %9)
  call void @llvm.lifetime.end.p0(i64 1, ptr %3) #12
  ret ptr %10
}

; Function Attrs: nounwind uwtable
define hidden void @je_tcache_flush(ptr noundef %0) #0 {
  %2 = alloca ptr, align 8
  store ptr %0, ptr %2, align 8, !tbaa !14
  br label %3

3:                                                ; preds = %1
  br label %4

4:                                                ; preds = %3
  %5 = load ptr, ptr %2, align 8, !tbaa !14
  %6 = load ptr, ptr %2, align 8, !tbaa !14
  %7 = call ptr @tsd_tcachep_get(ptr noundef %6)
  call void @tcache_flush_cache(ptr noundef %5, ptr noundef %7)
  ret void
}