; Function Attrs: nounwind uwtable
define hidden void @je_tcache_flush(ptr noundef %0) local_unnamed_addr #0 {
  %2 = getelementptr inbounds nuw i8, ptr %0, i64 872
  %3 = load i32, ptr @je_nhbins, align 4, !tbaa !46
  %.not.i = icmp eq i32 %3, 0
  br i1 %.not.i, label %tcache_flush_cache.exit, label %.lr.ph.i

.lr.ph.i:                                         ; preds = %1
  %4 = getelementptr inbounds nuw i8, ptr %0, i64 880
  br label %5

5:                                                ; preds = %11, %.lr.ph.i
  %indvars.iv.i = phi i64 [ 0, %.lr.ph.i ], [ %indvars.iv.next.i, %11 ]
  %6 = getelementptr inbounds nuw [76 x %struct.cache_bin_s], ptr %4, i64 0, i64 %indvars.iv.i
  %7 = icmp samesign ult i64 %indvars.iv.i, 39
  %8 = trunc nuw i64 %indvars.iv.i to i32
  br i1 %7, label %9, label %10

9:                                                ; preds = %5
  tail call void @je_tcache_bin_flush_small(ptr noundef %0, ptr noundef nonnull %2, ptr noundef nonnull %6, i32 noundef %8, i32 noundef 0)
  br label %11

10:                                               ; preds = %5
  tail call void @je_tcache_bin_flush_large(ptr noundef %0, ptr noundef nonnull %2, ptr noundef nonnull %6, i32 noundef %8, i32 noundef 0)
  br label %11

11:                                               ; preds = %10, %9
  %indvars.iv.next.i = add nuw nsw i64 %indvars.iv.i, 1
  %12 = load i32, ptr @je_nhbins, align 4, !tbaa !46
  %13 = zext i32 %12 to i64
  %14 = icmp samesign ult i64 %indvars.iv.next.i, %13
  br i1 %14, label %5, label %tcache_flush_cache.exit, !llvm.loop !164

tcache_flush_cache.exit:                          ; preds = %11, %1
  ret void
}